target datalayout = "e-m:e-p270:32:32-p271:32:32-p272:64:64-i64:64-i128:128-f80:128-n8:16:32:64-S128"
target triple = "x86_64-pc-linux-gnu"

%struct.XLogRecoveryCtlData = type { i8, i8, %struct.Latch, i64, i64, i32, i64, i32, i64, i64, i32, %struct.ConditionVariable, i8 }
%struct.Latch = type { i32, i32, i8, i32 }
%struct.ConditionVariable = type { i8, %struct.proclist_head }
%struct.proclist_head = type { i32, i32 }

@XLogRecoveryCtl = internal global ptr null, align 8
@.str.6 = private unnamed_addr constant [15 x i8] c"xlogrecovery.c\00", align 1
@LocalPromoteIsTriggered = internal global i8 0, align 1
@__func__.PromoteIsTriggered = private unnamed_addr constant [19 x i8] c"PromoteIsTriggered\00", align 1

; Function Attrs: inlinehint nounwind uwtable
define internal i32 @tas(ptr noundef %0) #7 {
  %2 = alloca ptr, align 8
  %3 = alloca i8, align 1
  store ptr %0, ptr %2, align 8
  call void @llvm.lifetime.start.p0(i64 1, ptr %3) #14
  store i8 1, ptr %3, align 1
  %4 = load i8, ptr %3, align 1
  %5 = load ptr, ptr %2, align 8
  %6 = call i8 asm sideeffect "\09lock\09\09\09\0A\09xchgb\09$0,$1\09\0A", "=q,=*m,0,*m,~{memory},~{cc},~{dirflag},~{fpsr},~{flags}"(ptr elementtype(i8) %5, i8 %4, ptr elementtype(i8) %5) #14, !srcloc !13
  store i8 %6, ptr %3, align 1
  %7 = load i8, ptr %3, align 1
  %8 = zext i8 %7 to i32
  call void @llvm.lifetime.end.p0(i64 1, ptr %3) #14
  ret i32 %8
}

; Function Attrs: nounwind uwtable
define dso_local zeroext i1 @PromoteIsTriggered() #0 {
  %1 = alloca i1, align 1
  %2 = load i8, ptr @LocalPromoteIsTriggered, align 1, !range !4, !noundef !5
  %3 = trunc i8 %2 to i1
  br i1 %3, label %4, label %5

4:                                                ; preds = %0
  store i1 true, ptr %1, align 1
  br label %27

5:                                                ; preds = %0
  %6 = load ptr, ptr @XLogRecoveryCtl, align 8
  %7 = getelementptr inbounds nuw %struct.XLogRecoveryCtlData, ptr %6, i32 0, i32 12
  %8 = call i32 @tas(ptr noundef %7)
  %9 = icmp ne i32 %8, 0
  br i1 %9, label %10, label %14

10:                                               ; preds = %5
  %11 = load ptr, ptr @XLogRecoveryCtl, align 8
  %12 = getelementptr inbounds nuw %struct.XLogRecoveryCtlData, ptr %11, i32 0, i32 12
  %13 = call i32 @s_lock(ptr noundef %12, ptr noundef @.str.6, i32 noundef 4416, ptr noundef @__func__.PromoteIsTriggered)
  br label %15

14:                                               ; preds = %5
  br label %15

15:                                               ; preds = %14, %10
  %16 = load ptr, ptr @XLogRecoveryCtl, align 8
  %17 = getelementptr inbounds nuw %struct.XLogRecoveryCtlData, ptr %16, i32 0, i32 1
  %18 = load i8, ptr %17, align 1, !range !4, !noundef !5
  %19 = trunc i8 %18 to i1
  %20 = zext i1 %19 to i8
  store i8 %20, ptr @LocalPromoteIsTriggered, align 1
  br label %21

21:                                               ; preds = %15
  call void asm sideeffect "", "~{memory},~{dirflag},~{fpsr},~{flags}"() #14, !srcloc !21
  %22 = load ptr, ptr @XLogRecoveryCtl, align 8
  %23 = getelementptr inbounds nuw %struct.XLogRecoveryCtlData, ptr %22, i32 0, i32 12
  store i8 0, ptr %23, align 8
  br label %24

24:                                               ; preds = %21
  %25 = load i8, ptr @LocalPromoteIsTriggered, align 1, !range !4, !noundef !5
  %26 = trunc i8 %25 to i1
  store i1 %26, ptr %1, align 1
  br label %27

27:                                               ; preds = %24, %4
  %28 = load i1, ptr %1, align 1
  ret i1 %28
}